Certificate:
    Data:
        Version: 3 (0x2)
        Serial Number: 1 (0x1)
    Signature Algorithm: sha256WithRSAEncryption
        Issuer: CN=10.196.36.130@1522055876
        Validity
            Not Before: Mar 26 09:21:21 2018 GMT
            Not After : Aug 11 09:21:21 2045 GMT
        Subject: CN=server
        Subject Public Key Info:
            Public Key Algorithm: rsaEncryption
                Public-Key: (2048 bit)
                Modulus:
                    00:cd:e9:d7:12:fd:8d:3c:98:1a:dd:84:c5:a5:b4:
                    c0:ba:56:34:0b:7d:8a:5b:7d:9e:70:73:c7:70:f7:
                    db:c1:f0:d0:bc:e1:33:32:90:aa:d5:3c:56:b1:3f:
                    d9:b8:36:2f:34:17:86:ad:88:8b:f1:42:10:e3:bd:
                    8b:6a:4c:84:ee:4b:1d:ee:16:c4:bd:52:48:4f:1f:
                    03:78:31:93:55:7f:f7:39:67:52:ed:0c:99:2a:f2:
                    93:09:f3:e4:80:7b:a9:d0:47:b2:ba:0d:3d:ca:a8:
                    d8:3e:d0:38:64:f0:a0:2b:80:11:42:ee:01:62:20:
                    68:01:be:1e:94:9d:c3:bc:c0:c9:74:a0:b7:f4:6a:
                    71:11:51:9f:81:cd:0e:b1:e3:55:52:9f:f3:7b:18:
                    84:b9:40:f5:fc:7c:ee:eb:62:8e:8b:bd:de:3c:d3:
                    57:2f:60:12:c4:7e:14:c5:68:f4:69:50:2c:dd:c6:
                    b1:7a:0c:ff:68:65:7f:0a:95:66:eb:80:45:47:a8:
                    40:fe:02:96:e5:17:b4:bf:5c:9d:73:27:76:ad:51:
                    d7:c9:41:12:41:34:c7:71:85:93:ff:d5:80:32:74:
                    8b:23:e9:c9:52:a4:aa:5c:b9:71:6f:be:3b:0c:ee:
                    e2:a1:d9:e1:01:14:fc:09:72:a0:a2:b2:15:d5:07:
                    6f:cf
                Exponent: 65537 (0x10001)
        X509v3 extensions:
            X509v3 Basic Constraints: 
                CA:FALSE
            X509v3 Subject Key Identifier: 
                15:86:D5:47:7C:E2:75:82:04:69:CC:78:CB:FD:5F:D2:9F:E3:15:0D
            X509v3 Authority Key Identifier: 
                keyid:9C:52:D1:88:8B:6B:BD:83:A7:2E:51:69:0B:C6:78:36:30:D7:07:DC
                DirName:/CN=10.196.36.130@1522055876
                serial:DA:59:3D:FE:7C:B0:1E:9E

            X509v3 Extended Key Usage: 
                TLS Web Server Authentication
            X509v3 Key Usage: 
                Digital Signature, Key Encipherment
            X509v3 Subject Alternative Name: 
                IP Address:10.196.36.130, IP Address:20.254.0.1, DNS:kubernetes, DNS:kubernetes.default, DNS:kubernetes.default.svc, DNS:kubernetes.default.svc.cluster, DNS:kubernetes.default.svc.cluster.local
    Signature Algorithm: sha256WithRSAEncryption
         02:75:a0:25:2b:37:2b:f2:f0:80:02:96:b9:9e:ac:f9:33:d6:
         3a:93:e8:65:c2:2c:d8:6e:37:1e:b6:4a:6c:0e:b6:bc:7e:f5:
         3d:3f:d4:9c:1b:55:c7:25:be:6e:77:26:0c:d0:4b:da:2a:40:
         66:cd:ee:bc:29:24:6c:de:d4:15:63:30:1d:f3:b9:10:d7:54:
         47:eb:4e:64:45:25:60:39:4d:d6:7d:e1:17:c6:92:fa:ea:85:
         63:ff:eb:cd:d2:05:67:d1:f5:be:2e:b5:16:87:aa:3a:75:06:
         99:93:11:00:db:40:e7:86:81:84:37:3b:64:6d:1b:2c:0d:88:
         d6:4e:13:b6:37:77:ee:70:20:76:46:4f:ad:ab:55:a3:44:86:
         45:2e:f3:06:f7:d7:a1:d9:39:30:a8:64:cc:7c:2a:34:e9:1e:
         d3:48:40:3d:89:75:b6:ff:0f:33:10:de:37:d7:b9:09:76:0b:
         28:9a:3d:27:aa:cd:e2:9b:c2:fa:26:be:cb:32:c9:c2:47:ab:
         b3:b9:e4:36:c6:54:81:9b:1a:75:cb:25:48:f2:26:2d:cc:2f:
         0a:d0:bb:b1:43:1f:b1:a1:29:70:e0:28:d2:fb:8a:4d:01:8b:
         c6:10:b7:73:df:dc:98:60:9e:8f:43:2f:1f:67:54:aa:8c:d2:
         b5:ea:a4:4c
-----BEGIN CERTIFICATE-----
MIID7jCCAtagAwIBAgIBATANBgkqhkiG9w0BAQsFADAjMSEwHwYDVQQDDBgxMC4x
OTYuMzYuMTMwQDE1MjIwNTU4NzYwHhcNMTgwMzI2MDkyMTIxWhcNNDUwODExMDky
MTIxWjARMQ8wDQYDVQQDDAZzZXJ2ZXIwggEiMA0GCSqGSIb3DQEBAQUAA4IBDwAw
ggEKAoIBAQDN6dcS/Y08mBrdhMWltMC6VjQLfYpbfZ5wc8dw99vB8NC84TMykKrV
PFaxP9m4Ni80F4atiIvxQhDjvYtqTITuSx3uFsS9UkhPHwN4MZNVf/c5Z1LtDJkq
8pMJ8+SAe6nQR7K6DT3KqNg+0Dhk8KArgBFC7gFiIGgBvh6UncO8wMl0oLf0anER
UZ+BzQ6x41VSn/N7GIS5QPX8fO7rYo6Lvd4801cvYBLEfhTFaPRpUCzdxrF6DP9o
ZX8KlWbrgEVHqED+ApblF7S/XJ1zJ3atUdfJQRJBNMdxhZP/1YAydIsj6clSpKpc
uXFvvjsM7uKh2eEBFPwJcqCishXVB2/PAgMBAAGjggE9MIIBOTAJBgNVHRMEAjAA
MB0GA1UdDgQWBBQVhtVHfOJ1ggRpzHjL/V/Sn+MVDTBTBgNVHSMETDBKgBScUtGI
i2u9g6cuUWkLxng2MNcH3KEnpCUwIzEhMB8GA1UEAwwYMTAuMTk2LjM2LjEzMEAx
NTIyMDU1ODc2ggkA2lk9/nywHp4wEwYDVR0lBAwwCgYIKwYBBQUHAwEwCwYDVR0P
BAQDAgWgMIGVBgNVHREEgY0wgYqHBArEJIKHBBT+AAGCCmt1YmVybmV0ZXOCEmt1
YmVybmV0ZXMuZGVmYXVsdIIWa3ViZXJuZXRlcy5kZWZhdWx0LnN2Y4Iea3ViZXJu
ZXRlcy5kZWZhdWx0LnN2Yy5jbHVzdGVygiRrdWJlcm5ldGVzLmRlZmF1bHQuc3Zj
LmNsdXN0ZXIubG9jYWwwDQYJKoZIhvcNAQELBQADggEBAAJ1oCUrNyvy8IAClrme
rPkz1jqT6GXCLNhuNx62SmwOtrx+9T0/1JwbVcclvm53JgzQS9oqQGbN7rwpJGze
1BVjMB3zuRDXVEfrTmRFJWA5TdZ94RfGkvrqhWP/683SBWfR9b4utRaHqjp1BpmT
EQDbQOeGgYQ3O2RtGywNiNZOE7Y3d+5wIHZGT62rVaNEhkUu8wb316HZOTCoZMx8
KjTpHtNIQD2Jdbb/DzMQ3jfXuQl2CyiaPSeqzeKbwvomvssyycJHq7O55DbGVIGb
GnXLJUjyJi3MLwrQu7FDH7GhKXDgKNL7ik0Bi8YQt3Pf3Jhgno9DLx9nVKqM0rXq
pEw=
-----END CERTIFICATE-----
